target datalayout = "e-m:e-p270:32:32-p271:32:32-p272:64:64-i64:64-i128:128-f80:128-n8:16:32:64-S128"
target triple = "x86_64-pc-linux-gnu"

%"class.open_spiel::bridge_uncontested_bidding::Deal" = type { %"struct.std::array" }
%"struct.std::array" = type { [52 x i32] }

; Function Attrs: mustprogress nounwind uwtable
define linkonce_odr noundef nonnull align 4 dereferenceable(4) ptr @_ZNSt14__array_traitsIiLm52EE6_S_refERA52_Kim(ptr noundef nonnull align 4 dereferenceable(208) %0, i64 noundef %1) #5 comdat align 2 {
  %3 = alloca ptr, align 8
  %4 = alloca i64, align 8
  store ptr %0, ptr %3, align 8
  store i64 %1, ptr %4, align 8
  %5 = load ptr, ptr %3, align 8
  %6 = load i64, ptr %4, align 8
  %7 = getelementptr inbounds [52 x i32], ptr %5, i64 0, i64 %6
  ret ptr %7
}

; Function Attrs: mustprogress nounwind uwtable
define linkonce_odr noundef nonnull align 4 dereferenceable(4) ptr @_ZNKSt5arrayIiLm52EEixEm(ptr noundef nonnull align 4 dereferenceable(208) %0, i64 noundef %1) #5 comdat align 2 {
  %3 = alloca ptr, align 8
  %4 = alloca i64, align 8
  store ptr %0, ptr %3, align 8
  store i64 %1, ptr %4, align 8
  %5 = load ptr, ptr %3, align 8
  %6 = getelementptr inbounds nuw %"struct.std::array", ptr %5, i32 0, i32 0
  %7 = load i64, ptr %4, align 8
  %8 = call noundef nonnull align 4 dereferenceable(4) ptr @_ZNSt14__array_traitsIiLm52EE6_S_refERA52_Kim(ptr noundef nonnull align 4 dereferenceable(208) %6, i64 noundef %7) #3
  ret ptr %8
}

; Function Attrs: mustprogress nounwind uwtable
define linkonce_odr noundef i32 @_ZNK10open_spiel26bridge_uncontested_bidding4Deal4RankEi(ptr noundef nonnull align 4 dereferenceable(208) %0, i32 noundef %1) #5 comdat align 2 {
  %3 = alloca ptr, align 8
  %4 = alloca i32, align 4
  store ptr %0, ptr %3, align 8
  store i32 %1, ptr %4, align 4
  %5 = load ptr, ptr %3, align 8
  %6 = getelementptr inbounds nuw %"class.open_spiel::bridge_uncontested_bidding::Deal", ptr %5, i32 0, i32 0
  %7 = load i32, ptr %4, align 4
  %8 = sext i32 %7 to i64
  %9 = call noundef nonnull align 4 dereferenceable(4) ptr @_ZNKSt5arrayIiLm52EEixEm(ptr noundef nonnull align 4 dereferenceable(208) %6, i64 noundef %8) #3
  %10 = load i32, ptr %9, align 4
  %11 = sdiv i32 %10, 4
  ret i32 %11
}

; Function Attrs: mustprogress nounwind uwtable
define linkonce_odr noundef i32 @_ZNK10open_spiel26bridge_uncontested_bidding4Deal4SuitEi(ptr noundef nonnull align 4 dereferenceable(208) %0, i32 noundef %1) #5 comdat align 2 {
  %3 = alloca ptr, align 8
  %4 = alloca i32, align 4
  store ptr %0, ptr %3, align 8
  store i32 %1, ptr %4, align 4
  %5 = load ptr, ptr %3, align 8
  %6 = getelementptr inbounds nuw %"class.open_spiel::bridge_uncontested_bidding::Deal", ptr %5, i32 0, i32 0
  %7 = load i32, ptr %4, align 4
  %8 = sext i32 %7 to i64
  %9 = call noundef nonnull align 4 dereferenceable(4) ptr @_ZNKSt5arrayIiLm52EEixEm(ptr noundef nonnull align 4 dereferenceable(208) %6, i64 noundef %8) #3
  %10 = load i32, ptr %9, align 4
  %11 = srem i32 %10, 4
  ret i32 %11
}

; Function Attrs: mustprogress nounwind uwtable
define internal noundef zeroext i1 @_ZN10open_spiel26bridge_uncontested_bidding12_GLOBAL__N_19Is2NTDealERKNS0_4DealE(ptr noundef nonnull align 4 dereferenceable(208) %0) #5 {
  %2 = alloca ptr, align 8
  %3 = alloca [4 x i32], align 16
  %4 = alloca i32, align 4
  %5 = alloca i32, align 4
  %6 = alloca i32, align 4
  %7 = alloca i32, align 4
  %8 = alloca i8, align 1
  store ptr %0, ptr %2, align 8
  call void @llvm.memset.p0.i64(ptr align 16 %3, i8 0, i64 16, i1 false)
  store i32 0, ptr %4, align 4
  store i32 0, ptr %5, align 4
  br label %9

9:                                                ; preds = %32, %1
  %10 = load i32, ptr %5, align 4
  %11 = icmp slt i32 %10, 13
  br i1 %11, label %12, label %35

12:                                               ; preds = %9
  %13 = load ptr, ptr %2, align 8
  %14 = load i32, ptr %5, align 4
  %15 = call noundef i32 @_ZNK10open_spiel26bridge_uncontested_bidding4Deal4SuitEi(ptr noundef nonnull align 4 dereferenceable(208) %13, i32 noundef %14)
  store i32 %15, ptr %6, align 4
  %16 = load ptr, ptr %2, align 8
  %17 = load i32, ptr %5, align 4
  %18 = call noundef i32 @_ZNK10open_spiel26bridge_uncontested_bidding4Deal4RankEi(ptr noundef nonnull align 4 dereferenceable(208) %16, i32 noundef %17)
  store i32 %18, ptr %7, align 4
  %19 = load i32, ptr %6, align 4
  %20 = sext i32 %19 to i64
  %21 = getelementptr inbounds [4 x i32], ptr %3, i64 0, i64 %20
  %22 = load i32, ptr %21, align 4
  %23 = add nsw i32 %22, 1
  store i32 %23, ptr %21, align 4
  %24 = load i32, ptr %7, align 4
  %25 = icmp sgt i32 %24, 8
  br i1 %25, label %26, label %31

26:                                               ; preds = %12
  %27 = load i32, ptr %7, align 4
  %28 = sub nsw i32 %27, 8
  %29 = load i32, ptr %4, align 4
  %30 = add nsw i32 %29, %28
  store i32 %30, ptr %4, align 4
  br label %31

31:                                               ; preds = %26, %12
  br label %32

32:                                               ; preds = %31
  %33 = load i32, ptr %5, align 4
  %34 = add nsw i32 %33, 1
  store i32 %34, ptr %5, align 4
  br label %9, !llvm.loop !21

35:                                               ; preds = %9
  %36 = getelementptr inbounds [4 x i32], ptr %3, i64 0, i64 0
  %37 = load i32, ptr %36, align 16
  %38 = getelementptr inbounds [4 x i32], ptr %3, i64 0, i64 1
  %39 = load i32, ptr %38, align 4
  %40 = mul nsw i32 %37, %39
  %41 = getelementptr inbounds [4 x i32], ptr %3, i64 0, i64 2
  %42 = load i32, ptr %41, align 8
  %43 = mul nsw i32 %40, %42
  %44 = getelementptr inbounds [4 x i32], ptr %3, i64 0, i64 3
  %45 = load i32, ptr %44, align 4
  %46 = mul nsw i32 %43, %45
  %47 = icmp sge i32 %46, 90
  %48 = zext i1 %47 to i8
  store i8 %48, ptr %8, align 1
  %49 = load i8, ptr %8, align 1
  %50 = trunc i8 %49 to i1
  br i1 %50, label %51, label %57

51:                                               ; preds = %35
  %52 = load i32, ptr %4, align 4
  %53 = icmp sle i32 20, %52
  br i1 %53, label %54, label %57

54:                                               ; preds = %51
  %55 = load i32, ptr %4, align 4
  %56 = icmp sle i32 %55, 21
  br label %57

57:                                               ; preds = %54, %51, %35
  %58 = phi i1 [ false, %51 ], [ false, %35 ], [ %56, %54 ]
  ret i1 %58
}