; Function Attrs: mustprogress nofree norecurse nosync nounwind willreturn memory(argmem: read) uwtable
define internal noundef zeroext i1 @_ZN10open_spiel26bridge_uncontested_bidding12_GLOBAL__N_19Is2NTDealERKNS0_4DealE(ptr noundef nonnull readonly align 4 captures(none) dereferenceable(208) %0) #12 {
  %2 = alloca [4 x i32], align 16
  call void @llvm.memset.p0.i64(ptr noundef nonnull align 16 dereferenceable(16) %2, i8 0, i64 16, i1 false)
  br label %3

3:                                                ; preds = %1, %3
  %indvars.iv = phi i64 [ 0, %1 ], [ %indvars.iv.next, %3 ]
  %.016 = phi i32 [ 0, %1 ], [ %.1, %3 ]
  %4 = getelementptr inbounds nuw [52 x i32], ptr %0, i64 0, i64 %indvars.iv
  %5 = load i32, ptr %4, align 4
  %6 = srem i32 %5, 4
  %7 = sdiv i32 %5, 4
  %8 = sext i32 %6 to i64
  %9 = getelementptr inbounds [4 x i32], ptr %2, i64 0, i64 %8
  %10 = load i32, ptr %9, align 4
  %11 = add nsw i32 %10, 1
  store i32 %11, ptr %9, align 4
  %12 = icmp sgt i32 %5, 35
  %13 = add nsw i32 %7, -8
  %14 = select i1 %12, i32 %13, i32 0
  %.1 = add nsw i32 %14, %.016
  %indvars.iv.next = add nuw nsw i64 %indvars.iv, 1
  %exitcond.not = icmp eq i64 %indvars.iv.next, 13
  br i1 %exitcond.not, label %15, label %3, !llvm.loop !38

15:                                               ; preds = %3
  %16 = load i32, ptr %2, align 16
  %17 = getelementptr inbounds nuw i8, ptr %2, i64 4
  %18 = load i32, ptr %17, align 4
  %19 = mul nsw i32 %18, %16
  %20 = getelementptr inbounds nuw i8, ptr %2, i64 8
  %21 = load i32, ptr %20, align 8
  %22 = mul nsw i32 %19, %21
  %23 = getelementptr inbounds nuw i8, ptr %2, i64 12
  %24 = load i32, ptr %23, align 4
  %25 = mul nsw i32 %22, %24
  %26 = icmp sgt i32 %25, 89
  %27 = and i32 %.1, -2
  %28 = icmp eq i32 %27, 20
  %spec.select = select i1 %26, i1 %28, i1 false
  ret i1 %spec.select
}